target datalayout = "e-m:e-p270:32:32-p271:32:32-p272:64:64-i64:64-i128:128-f80:128-n8:16:32:64-S128"
target triple = "x86_64-pc-linux-gnu"

%"class.std::vector" = type { %"struct.std::_Vector_base" }
%"struct.std::_Vector_base" = type { %"struct.std::_Vector_base<float, std::allocator<float>>::_Vector_impl" }
%"struct.std::_Vector_base<float, std::allocator<float>>::_Vector_impl" = type { %"struct.std::_Vector_base<float, std::allocator<float>>::_Vector_impl_data" }
%"struct.std::_Vector_base<float, std::allocator<float>>::_Vector_impl_data" = type { ptr, ptr, ptr }
%"struct.faiss::(anonymous namespace)::QuantizerTemplate" = type { %"struct.faiss::ScalarQuantizer::SQuantizer", i64, ptr, ptr }
%"struct.faiss::ScalarQuantizer::SQuantizer" = type { ptr }
%"struct.faiss::ScalarQuantizer::SQDistanceComputer" = type { %"struct.faiss::FlatCodesDistanceComputer", ptr }
%"struct.faiss::FlatCodesDistanceComputer" = type { %"struct.faiss::DistanceComputer", ptr, i64 }
%"struct.faiss::DistanceComputer" = type { ptr }
%"struct.faiss::(anonymous namespace)::DCTemplate.10" = type { %"struct.faiss::ScalarQuantizer::SQDistanceComputer", %"struct.faiss::(anonymous namespace)::QuantizerTemplate" }
%"struct.faiss::(anonymous namespace)::SimilarityL2" = type <{ ptr, ptr, float, [4 x i8] }>
%"struct.faiss::InvertedListScanner" = type { ptr, i64, i8, i8, ptr, i64 }
%"struct.faiss::(anonymous namespace)::IVFSQScannerL2.35" = type { %"struct.faiss::InvertedListScanner", %"struct.faiss::(anonymous namespace)::DCTemplate.10", i8, ptr, ptr, %"class.std::vector" }

; Function Attrs: mustprogress nounwind uwtable
define internal void @_ZN5faiss12_GLOBAL__N_112SimilarityL2ILi1EEC2EPKf(ptr noundef nonnull align 8 dereferenceable(20) %0, ptr noundef %1) unnamed_addr #1 align 2 {
  %3 = alloca ptr, align 8
  %4 = alloca ptr, align 8
  store ptr %0, ptr %3, align 8
  store ptr %1, ptr %4, align 8
  %5 = load ptr, ptr %3, align 8
  %6 = getelementptr inbounds %"struct.faiss::(anonymous namespace)::SimilarityL2", ptr %5, i32 0, i32 0
  %7 = load ptr, ptr %4, align 8
  store ptr %7, ptr %6, align 8
  ret void
}

; Function Attrs: mustprogress uwtable
define internal noundef float @_ZNK5faiss12_GLOBAL__N_110DCTemplateINS0_17QuantizerTemplateINS0_9Codec8bitELb0ELi1EEENS0_12SimilarityL2ILi1EEELi1EE16compute_distanceEPKfPKh(ptr noundef nonnull align 8 dereferenceable(64) %0, ptr noundef %1, ptr noundef %2) #0 align 2 {
  %4 = alloca ptr, align 8
  %5 = alloca i32, align 4
  %6 = alloca ptr, align 8
  %7 = alloca ptr, align 8
  %8 = alloca i32, align 4
  %9 = alloca float, align 4
  %10 = alloca ptr, align 8
  %11 = alloca float, align 4
  %12 = alloca float, align 4
  %13 = alloca ptr, align 8
  %14 = alloca ptr, align 8
  %15 = alloca ptr, align 8
  %16 = alloca ptr, align 8
  %17 = alloca ptr, align 8
  %18 = alloca %"struct.faiss::(anonymous namespace)::SimilarityL2", align 8
  %19 = alloca i64, align 8
  %20 = alloca float, align 4
  store ptr %0, ptr %15, align 8
  store ptr %1, ptr %16, align 8
  store ptr %2, ptr %17, align 8
  %21 = load ptr, ptr %15, align 8
  %22 = load ptr, ptr %16, align 8
  call void @_ZN5faiss12_GLOBAL__N_112SimilarityL2ILi1EEC2EPKf(ptr noundef nonnull align 8 dereferenceable(20) %18, ptr noundef %22)
  store ptr %18, ptr %14, align 8
  %23 = load ptr, ptr %14, align 8
  %24 = getelementptr inbounds %"struct.faiss::(anonymous namespace)::SimilarityL2", ptr %23, i32 0, i32 2
  store float 0.000000e+00, ptr %24, align 8
  %25 = load ptr, ptr %23, align 8
  %26 = getelementptr inbounds %"struct.faiss::(anonymous namespace)::SimilarityL2", ptr %23, i32 0, i32 1
  store ptr %25, ptr %26, align 8
  store i64 0, ptr %19, align 8
  br label %27

27:                                               ; preds = %77, %3
  %28 = load i64, ptr %19, align 8
  %29 = getelementptr inbounds %"struct.faiss::(anonymous namespace)::DCTemplate.10", ptr %21, i32 0, i32 1
  %30 = getelementptr inbounds %"struct.faiss::(anonymous namespace)::QuantizerTemplate", ptr %29, i32 0, i32 1
  %31 = load i64, ptr %30, align 8
  %32 = icmp ult i64 %28, %31
  br i1 %32, label %33, label %80

33:                                               ; preds = %27
  %34 = getelementptr inbounds %"struct.faiss::(anonymous namespace)::DCTemplate.10", ptr %21, i32 0, i32 1
  %35 = load ptr, ptr %17, align 8
  %36 = load i64, ptr %19, align 8
  %37 = trunc i64 %36 to i32
  store ptr %34, ptr %6, align 8
  store ptr %35, ptr %7, align 8
  store i32 %37, ptr %8, align 4
  %38 = load ptr, ptr %6, align 8
  %39 = load ptr, ptr %7, align 8
  %40 = load i32, ptr %8, align 4
  store ptr %39, ptr %4, align 8
  store i32 %40, ptr %5, align 4
  %41 = load ptr, ptr %4, align 8
  %42 = load i32, ptr %5, align 4
  %43 = sext i32 %42 to i64
  %44 = getelementptr inbounds i8, ptr %41, i64 %43
  %45 = load i8, ptr %44, align 1
  %46 = zext i8 %45 to i32
  %47 = sitofp i32 %46 to float
  %48 = fadd float %47, 5.000000e-01
  %49 = fdiv float %48, 2.550000e+02
  store float %49, ptr %9, align 4
  %50 = getelementptr inbounds %"struct.faiss::(anonymous namespace)::QuantizerTemplate", ptr %38, i32 0, i32 2
  %51 = load ptr, ptr %50, align 8
  %52 = load i32, ptr %8, align 4
  %53 = sext i32 %52 to i64
  %54 = getelementptr inbounds float, ptr %51, i64 %53
  %55 = load float, ptr %54, align 4
  %56 = load float, ptr %9, align 4
  %57 = getelementptr inbounds %"struct.faiss::(anonymous namespace)::QuantizerTemplate", ptr %38, i32 0, i32 3
  %58 = load ptr, ptr %57, align 8
  %59 = load i32, ptr %8, align 4
  %60 = sext i32 %59 to i64
  %61 = getelementptr inbounds float, ptr %58, i64 %60
  %62 = load float, ptr %61, align 4
  %63 = call noundef float @llvm.fmuladd.f32(float %56, float %62, float %55)
  store float %63, ptr %20, align 4
  %64 = load float, ptr %20, align 4
  store ptr %18, ptr %10, align 8
  store float %64, ptr %11, align 4
  %65 = load ptr, ptr %10, align 8
  %66 = getelementptr inbounds %"struct.faiss::(anonymous namespace)::SimilarityL2", ptr %65, i32 0, i32 1
  %67 = load ptr, ptr %66, align 8
  %68 = getelementptr inbounds float, ptr %67, i32 1
  store ptr %68, ptr %66, align 8
  %69 = load float, ptr %67, align 4
  %70 = load float, ptr %11, align 4
  %71 = fsub float %69, %70
  store float %71, ptr %12, align 4
  %72 = load float, ptr %12, align 4
  %73 = load float, ptr %12, align 4
  %74 = getelementptr inbounds %"struct.faiss::(anonymous namespace)::SimilarityL2", ptr %65, i32 0, i32 2
  %75 = load float, ptr %74, align 8
  %76 = call float @llvm.fmuladd.f32(float %72, float %73, float %75)
  store float %76, ptr %74, align 8
  br label %77

77:                                               ; preds = %33
  %78 = load i64, ptr %19, align 8
  %79 = add i64 %78, 1
  store i64 %79, ptr %19, align 8
  br label %27, !llvm.loop !50

80:                                               ; preds = %27
  store ptr %18, ptr %13, align 8
  %81 = load ptr, ptr %13, align 8
  %82 = getelementptr inbounds %"struct.faiss::(anonymous namespace)::SimilarityL2", ptr %81, i32 0, i32 2
  %83 = load float, ptr %82, align 8
  ret float %83
}

; Function Attrs: mustprogress uwtable
define internal noundef float @_ZNK5faiss12_GLOBAL__N_110DCTemplateINS0_17QuantizerTemplateINS0_9Codec8bitELb0ELi1EEENS0_12SimilarityL2ILi1EEELi1EE13query_to_codeEPKh(ptr noundef nonnull align 8 dereferenceable(64) %0, ptr noundef %1) unnamed_addr #0 align 2 {
  %3 = alloca ptr, align 8
  %4 = alloca ptr, align 8
  store ptr %0, ptr %3, align 8
  store ptr %1, ptr %4, align 8
  %5 = load ptr, ptr %3, align 8
  %6 = getelementptr inbounds %"struct.faiss::ScalarQuantizer::SQDistanceComputer", ptr %5, i32 0, i32 1
  %7 = load ptr, ptr %6, align 8
  %8 = load ptr, ptr %4, align 8
  %9 = call noundef float @_ZNK5faiss12_GLOBAL__N_110DCTemplateINS0_17QuantizerTemplateINS0_9Codec8bitELb0ELi1EEENS0_12SimilarityL2ILi1EEELi1EE16compute_distanceEPKfPKh(ptr noundef nonnull align 8 dereferenceable(64) %5, ptr noundef %7, ptr noundef %8)
  ret float %9
}

; Function Attrs: mustprogress uwtable
define internal noundef float @_ZNK5faiss12_GLOBAL__N_114IVFSQScannerL2INS0_10DCTemplateINS0_17QuantizerTemplateINS0_9Codec8bitELb0ELi1EEENS0_12SimilarityL2ILi1EEELi1EEELi0EE16distance_to_codeEPKh(ptr noundef nonnull align 8 dereferenceable(152) %0, ptr noundef %1) unnamed_addr #0 align 2 {
  %3 = alloca ptr, align 8
  %4 = alloca ptr, align 8
  store ptr %0, ptr %3, align 8
  store ptr %1, ptr %4, align 8
  %5 = load ptr, ptr %3, align 8
  %6 = getelementptr inbounds %"struct.faiss::(anonymous namespace)::IVFSQScannerL2.35", ptr %5, i32 0, i32 1
  %7 = load ptr, ptr %4, align 8
  %8 = call noundef float @_ZNK5faiss12_GLOBAL__N_110DCTemplateINS0_17QuantizerTemplateINS0_9Codec8bitELb0ELi1EEENS0_12SimilarityL2ILi1EEELi1EE13query_to_codeEPKh(ptr noundef nonnull align 8 dereferenceable(64) %6, ptr noundef %7)
  ret float %8
}