; Function Attrs: mustprogress nofree norecurse nosync nounwind willreturn memory(read, inaccessiblemem: none) uwtable
define internal noundef float @_ZNK5faiss12_GLOBAL__N_114IVFSQScannerL2INS0_10DCTemplateINS0_17QuantizerTemplateINS0_9Codec8bitELb0ELi1EEENS0_12SimilarityL2ILi1EEELi1EEELi0EE16distance_to_codeEPKh(ptr nocapture noundef nonnull readonly align 8 dereferenceable(152) %0, ptr nocapture noundef readonly %1) unnamed_addr #20 align 2 {
  %3 = getelementptr inbounds i8, ptr %0, i64 80
  %4 = load i64, ptr %3, align 8
  %.not.i.i = icmp eq i64 %4, 0
  br i1 %.not.i.i, label %_ZNK5faiss12_GLOBAL__N_110DCTemplateINS0_17QuantizerTemplateINS0_9Codec8bitELb0ELi1EEENS0_12SimilarityL2ILi1EEELi1EE13query_to_codeEPKh.exit, label %.lr.ph.i.i

.lr.ph.i.i:                                       ; preds = %2
  %5 = getelementptr inbounds i8, ptr %0, i64 64
  %6 = load ptr, ptr %5, align 8
  %7 = getelementptr inbounds i8, ptr %0, i64 88
  %8 = load ptr, ptr %7, align 8
  %9 = getelementptr inbounds i8, ptr %0, i64 96
  %10 = load ptr, ptr %9, align 8
  br label %11

11:                                               ; preds = %11, %.lr.ph.i.i
  %.023.i.i = phi i64 [ 0, %.lr.ph.i.i ], [ %27, %11 ]
  %.sroa.5.022.i.i = phi float [ 0.000000e+00, %.lr.ph.i.i ], [ %26, %11 ]
  %.sroa.2.021.i.i = phi ptr [ %6, %.lr.ph.i.i ], [ %23, %11 ]
  %sext.i.i = shl i64 %.023.i.i, 32
  %12 = ashr exact i64 %sext.i.i, 32
  %13 = getelementptr inbounds i8, ptr %1, i64 %12
  %14 = load i8, ptr %13, align 1
  %15 = uitofp i8 %14 to float
  %16 = fadd float %15, 5.000000e-01
  %17 = fdiv float %16, 2.550000e+02
  %18 = getelementptr inbounds float, ptr %8, i64 %12
  %19 = load float, ptr %18, align 4
  %20 = getelementptr inbounds float, ptr %10, i64 %12
  %21 = load float, ptr %20, align 4
  %22 = tail call noundef float @llvm.fmuladd.f32(float %17, float %21, float %19)
  %23 = getelementptr inbounds i8, ptr %.sroa.2.021.i.i, i64 4
  %24 = load float, ptr %.sroa.2.021.i.i, align 4
  %25 = fsub float %24, %22
  %26 = tail call float @llvm.fmuladd.f32(float %25, float %25, float %.sroa.5.022.i.i)
  %27 = add nuw i64 %.023.i.i, 1
  %exitcond.not.i.i = icmp eq i64 %27, %4
  br i1 %exitcond.not.i.i, label %_ZNK5faiss12_GLOBAL__N_110DCTemplateINS0_17QuantizerTemplateINS0_9Codec8bitELb0ELi1EEENS0_12SimilarityL2ILi1EEELi1EE13query_to_codeEPKh.exit, label %11, !llvm.loop !49

_ZNK5faiss12_GLOBAL__N_110DCTemplateINS0_17QuantizerTemplateINS0_9Codec8bitELb0ELi1EEENS0_12SimilarityL2ILi1EEELi1EE13query_to_codeEPKh.exit: ; preds = %11, %2
  %.sroa.5.0.lcssa.i.i = phi float [ 0.000000e+00, %2 ], [ %26, %11 ]
  ret float %.sroa.5.0.lcssa.i.i
}